target datalayout = "e-m:e-p270:32:32-p271:32:32-p272:64:64-i64:64-i128:128-f80:128-n8:16:32:64-S128"
target triple = "x86_64-pc-linux-gnu"

%struct.x509_store_ctx_st = type { ptr, i32, ptr, ptr, ptr, ptr, ptr, ptr, ptr, ptr, ptr, ptr, ptr, ptr, ptr, ptr, ptr, ptr, ptr, i32, i32, ptr, ptr, i32, i32, i32, ptr, ptr, ptr, i32, i32, ptr, %struct.crypto_ex_data_st }
%struct.crypto_ex_data_st = type { ptr }
%struct.X509_VERIFY_PARAM_st = type { ptr, i64, i64, i64, i32, i32, i32, ptr, ptr }
%struct.x509_st = type { ptr, ptr, ptr, i32, i32, ptr, %struct.crypto_ex_data_st, i64, i64, i64, i64, i64, i64, ptr, ptr, ptr, ptr, ptr, ptr, [20 x i8], ptr }

@.str = private unnamed_addr constant [126 x i8] c"generated/home/dtcxzyw/WorkSpace/Projects/compilers/llvm-opt-benchmark/bench/libquic/libquic/boringssl/crypto/x509/x509_vfy.c\00", align 1

; Function Attrs: nounwind uwtable
define internal i32 @check_policy(ptr noundef %0) #0 {
  %2 = alloca i32, align 4
  %3 = alloca ptr, align 8
  %4 = alloca i32, align 4
  %5 = alloca i32, align 4
  %6 = alloca ptr, align 8
  %7 = alloca i64, align 8
  store ptr %0, ptr %3, align 8, !tbaa !6
  call void @llvm.lifetime.start.p0(i64 4, ptr %4) #8
  %8 = load ptr, ptr %3, align 8, !tbaa !6
  %9 = getelementptr inbounds nuw %struct.x509_store_ctx_st, ptr %8, i32 0, i32 31
  %10 = load ptr, ptr %9, align 8, !tbaa !67
  %11 = icmp ne ptr %10, null
  br i1 %11, label %12, label %13

12:                                               ; preds = %1
  store i32 1, ptr %2, align 4
  store i32 1, ptr %5, align 4
  br label %113

13:                                               ; preds = %1
  %14 = load ptr, ptr %3, align 8, !tbaa !6
  %15 = getelementptr inbounds nuw %struct.x509_store_ctx_st, ptr %14, i32 0, i32 22
  %16 = load ptr, ptr %3, align 8, !tbaa !6
  %17 = getelementptr inbounds nuw %struct.x509_store_ctx_st, ptr %16, i32 0, i32 23
  %18 = load ptr, ptr %3, align 8, !tbaa !6
  %19 = getelementptr inbounds nuw %struct.x509_store_ctx_st, ptr %18, i32 0, i32 21
  %20 = load ptr, ptr %19, align 8, !tbaa !28
  %21 = load ptr, ptr %3, align 8, !tbaa !6
  %22 = getelementptr inbounds nuw %struct.x509_store_ctx_st, ptr %21, i32 0, i32 5
  %23 = load ptr, ptr %22, align 8, !tbaa !15
  %24 = getelementptr inbounds nuw %struct.X509_VERIFY_PARAM_st, ptr %23, i32 0, i32 7
  %25 = load ptr, ptr %24, align 8, !tbaa !170
  %26 = load ptr, ptr %3, align 8, !tbaa !6
  %27 = getelementptr inbounds nuw %struct.x509_store_ctx_st, ptr %26, i32 0, i32 5
  %28 = load ptr, ptr %27, align 8, !tbaa !15
  %29 = getelementptr inbounds nuw %struct.X509_VERIFY_PARAM_st, ptr %28, i32 0, i32 3
  %30 = load i64, ptr %29, align 8, !tbaa !39
  %31 = trunc i64 %30 to i32
  %32 = call i32 @X509_policy_check(ptr noundef %15, ptr noundef %17, ptr noundef %20, ptr noundef %25, i32 noundef %31)
  store i32 %32, ptr %4, align 4, !tbaa !13
  %33 = load i32, ptr %4, align 4, !tbaa !13
  %34 = icmp eq i32 %33, 0
  br i1 %34, label %35, label %36

35:                                               ; preds = %13
  call void @ERR_put_error(i32 noundef 11, i32 noundef 0, i32 noundef 65, ptr noundef @.str, i32 noundef 1607)
  store i32 0, ptr %2, align 4
  store i32 1, ptr %5, align 4
  br label %113

36:                                               ; preds = %13
  %37 = load i32, ptr %4, align 4, !tbaa !13
  %38 = icmp eq i32 %37, -1
  br i1 %38, label %39, label %78

39:                                               ; preds = %36
  call void @llvm.lifetime.start.p0(i64 8, ptr %6) #8
  call void @llvm.lifetime.start.p0(i64 8, ptr %7) #8
  store i64 1, ptr %7, align 8, !tbaa !63
  br label %40

40:                                               ; preds = %73, %39
  %41 = load i64, ptr %7, align 8, !tbaa !63
  %42 = load ptr, ptr %3, align 8, !tbaa !6
  %43 = getelementptr inbounds nuw %struct.x509_store_ctx_st, ptr %42, i32 0, i32 21
  %44 = load ptr, ptr %43, align 8, !tbaa !28
  %45 = call i64 @sk_num(ptr noundef %44)
  %46 = icmp ult i64 %41, %45
  br i1 %46, label %47, label %76

47:                                               ; preds = %40
  %48 = load ptr, ptr %3, align 8, !tbaa !6
  %49 = getelementptr inbounds nuw %struct.x509_store_ctx_st, ptr %48, i32 0, i32 21
  %50 = load ptr, ptr %49, align 8, !tbaa !28
  %51 = load i64, ptr %7, align 8, !tbaa !63
  %52 = call ptr @sk_value(ptr noundef %50, i64 noundef %51)
  store ptr %52, ptr %6, align 8, !tbaa !11
  %53 = load ptr, ptr %6, align 8, !tbaa !11
  %54 = getelementptr inbounds nuw %struct.x509_st, ptr %53, i32 0, i32 9
  %55 = load i64, ptr %54, align 8, !tbaa !52
  %56 = and i64 %55, 2048
  %57 = icmp ne i64 %56, 0
  br i1 %57, label %59, label %58

58:                                               ; preds = %47
  br label %73

59:                                               ; preds = %47
  %60 = load ptr, ptr %6, align 8, !tbaa !11
  %61 = load ptr, ptr %3, align 8, !tbaa !6
  %62 = getelementptr inbounds nuw %struct.x509_store_ctx_st, ptr %61, i32 0, i32 26
  store ptr %60, ptr %62, align 8, !tbaa !42
  %63 = load ptr, ptr %3, align 8, !tbaa !6
  %64 = getelementptr inbounds nuw %struct.x509_store_ctx_st, ptr %63, i32 0, i32 25
  store i32 42, ptr %64, align 8, !tbaa !41
  %65 = load ptr, ptr %3, align 8, !tbaa !6
  %66 = getelementptr inbounds nuw %struct.x509_store_ctx_st, ptr %65, i32 0, i32 8
  %67 = load ptr, ptr %66, align 8, !tbaa !29
  %68 = load ptr, ptr %3, align 8, !tbaa !6
  %69 = call i32 %67(i32 noundef 0, ptr noundef %68)
  %70 = icmp ne i32 %69, 0
  br i1 %70, label %72, label %71

71:                                               ; preds = %59
  store i32 0, ptr %2, align 4
  store i32 1, ptr %5, align 4
  br label %77

72:                                               ; preds = %59
  br label %73

73:                                               ; preds = %72, %58
  %74 = load i64, ptr %7, align 8, !tbaa !63
  %75 = add i64 %74, 1
  store i64 %75, ptr %7, align 8, !tbaa !63
  br label %40, !llvm.loop !171

76:                                               ; preds = %40
  store i32 1, ptr %2, align 4
  store i32 1, ptr %5, align 4
  br label %77

77:                                               ; preds = %76, %71
  call void @llvm.lifetime.end.p0(i64 8, ptr %7) #8
  call void @llvm.lifetime.end.p0(i64 8, ptr %6) #8
  br label %113

78:                                               ; preds = %36
  %79 = load i32, ptr %4, align 4, !tbaa !13
  %80 = icmp eq i32 %79, -2
  br i1 %80, label %81, label %91

81:                                               ; preds = %78
  %82 = load ptr, ptr %3, align 8, !tbaa !6
  %83 = getelementptr inbounds nuw %struct.x509_store_ctx_st, ptr %82, i32 0, i32 26
  store ptr null, ptr %83, align 8, !tbaa !42
  %84 = load ptr, ptr %3, align 8, !tbaa !6
  %85 = getelementptr inbounds nuw %struct.x509_store_ctx_st, ptr %84, i32 0, i32 25
  store i32 43, ptr %85, align 8, !tbaa !41
  %86 = load ptr, ptr %3, align 8, !tbaa !6
  %87 = getelementptr inbounds nuw %struct.x509_store_ctx_st, ptr %86, i32 0, i32 8
  %88 = load ptr, ptr %87, align 8, !tbaa !29
  %89 = load ptr, ptr %3, align 8, !tbaa !6
  %90 = call i32 %88(i32 noundef 0, ptr noundef %89)
  store i32 %90, ptr %2, align 4
  store i32 1, ptr %5, align 4
  br label %113

91:                                               ; preds = %78
  %92 = load ptr, ptr %3, align 8, !tbaa !6
  %93 = getelementptr inbounds nuw %struct.x509_store_ctx_st, ptr %92, i32 0, i32 5
  %94 = load ptr, ptr %93, align 8, !tbaa !15
  %95 = getelementptr inbounds nuw %struct.X509_VERIFY_PARAM_st, ptr %94, i32 0, i32 3
  %96 = load i64, ptr %95, align 8, !tbaa !39
  %97 = and i64 %96, 2048
  %98 = icmp ne i64 %97, 0
  br i1 %98, label %99, label %112

99:                                               ; preds = %91
  %100 = load ptr, ptr %3, align 8, !tbaa !6
  %101 = getelementptr inbounds nuw %struct.x509_store_ctx_st, ptr %100, i32 0, i32 26
  store ptr null, ptr %101, align 8, !tbaa !42
  %102 = load ptr, ptr %3, align 8, !tbaa !6
  %103 = getelementptr inbounds nuw %struct.x509_store_ctx_st, ptr %102, i32 0, i32 25
  store i32 0, ptr %103, align 8, !tbaa !41
  %104 = load ptr, ptr %3, align 8, !tbaa !6
  %105 = getelementptr inbounds nuw %struct.x509_store_ctx_st, ptr %104, i32 0, i32 8
  %106 = load ptr, ptr %105, align 8, !tbaa !29
  %107 = load ptr, ptr %3, align 8, !tbaa !6
  %108 = call i32 %106(i32 noundef 2, ptr noundef %107)
  %109 = icmp ne i32 %108, 0
  br i1 %109, label %111, label %110

110:                                              ; preds = %99
  store i32 0, ptr %2, align 4
  store i32 1, ptr %5, align 4
  br label %113

111:                                              ; preds = %99
  br label %112

112:                                              ; preds = %111, %91
  store i32 1, ptr %2, align 4
  store i32 1, ptr %5, align 4
  br label %113

113:                                              ; preds = %112, %110, %81, %77, %35, %12
  call void @llvm.lifetime.end.p0(i64 4, ptr %4) #8
  %114 = load i32, ptr %2, align 4
  ret i32 %114
}