; Function Attrs: nounwind uwtable
define internal i32 @check_policy(ptr noundef %0) #0 {
  %2 = getelementptr inbounds nuw i8, ptr %0, i64 224
  %3 = load ptr, ptr %2, align 8, !tbaa !63
  %.not = icmp eq ptr %3, null
  br i1 %.not, label %4, label %.loopexit

4:                                                ; preds = %1
  %5 = getelementptr inbounds nuw i8, ptr %0, i64 168
  %6 = getelementptr inbounds nuw i8, ptr %0, i64 176
  %7 = getelementptr inbounds nuw i8, ptr %0, i64 160
  %8 = load ptr, ptr %7, align 8, !tbaa !23
  %9 = getelementptr inbounds nuw i8, ptr %0, i64 40
  %10 = load ptr, ptr %9, align 8, !tbaa !6
  %11 = getelementptr inbounds nuw i8, ptr %10, i64 48
  %12 = load ptr, ptr %11, align 8, !tbaa !161
  %13 = getelementptr inbounds nuw i8, ptr %10, i64 24
  %14 = load i64, ptr %13, align 8, !tbaa !44
  %15 = trunc i64 %14 to i32
  %16 = tail call i32 @X509_policy_check(ptr noundef nonnull %5, ptr noundef nonnull %6, ptr noundef %8, ptr noundef %12, i32 noundef %15) #14
  switch i32 %16, label %44 [
    i32 0, label %23
    i32 -1, label %.preheader
    i32 -2, label %38
  ]

.preheader:                                       ; preds = %4
  %17 = getelementptr inbounds nuw i8, ptr %0, i64 192
  %18 = load ptr, ptr %7, align 8, !tbaa !23
  %19 = tail call i64 @sk_num(ptr noundef %18) #14
  %20 = icmp ugt i64 %19, 1
  br i1 %20, label %.lr.ph, label %.loopexit

.lr.ph:                                           ; preds = %.preheader
  %21 = getelementptr inbounds nuw i8, ptr %0, i64 184
  %22 = getelementptr inbounds nuw i8, ptr %0, i64 64
  br label %24

23:                                               ; preds = %4
  tail call void @ERR_put_error(i32 noundef 11, i32 noundef 0, i32 noundef 65, ptr noundef nonnull @.str, i32 noundef 1607) #14
  br label %.loopexit

24:                                               ; preds = %.lr.ph, %33
  %.035 = phi i64 [ 1, %.lr.ph ], [ %34, %33 ]
  %25 = load ptr, ptr %7, align 8, !tbaa !23
  %26 = tail call ptr @sk_value(ptr noundef %25, i64 noundef %.035) #14
  %27 = getelementptr inbounds nuw i8, ptr %26, i64 64
  %28 = load i64, ptr %27, align 8, !tbaa !33
  %29 = and i64 %28, 2048
  %.not33 = icmp eq i64 %29, 0
  br i1 %.not33, label %33, label %30

30:                                               ; preds = %24
  store ptr %26, ptr %17, align 8, !tbaa !51
  store i32 42, ptr %21, align 8, !tbaa !50
  %31 = load ptr, ptr %22, align 8, !tbaa !24
  %32 = tail call i32 %31(i32 noundef 0, ptr noundef nonnull %0) #14
  %.not34 = icmp eq i32 %32, 0
  br i1 %.not34, label %.loopexit, label %33

33:                                               ; preds = %30, %24
  %34 = add nuw i64 %.035, 1
  %35 = load ptr, ptr %7, align 8, !tbaa !23
  %36 = tail call i64 @sk_num(ptr noundef %35) #14
  %37 = icmp ult i64 %34, %36
  br i1 %37, label %24, label %.loopexit, !llvm.loop !162

38:                                               ; preds = %4
  %39 = getelementptr inbounds nuw i8, ptr %0, i64 192
  store ptr null, ptr %39, align 8, !tbaa !51
  %40 = getelementptr inbounds nuw i8, ptr %0, i64 184
  store i32 43, ptr %40, align 8, !tbaa !50
  %41 = getelementptr inbounds nuw i8, ptr %0, i64 64
  %42 = load ptr, ptr %41, align 8, !tbaa !24
  %43 = tail call i32 %42(i32 noundef 0, ptr noundef nonnull %0) #14
  br label %.loopexit

44:                                               ; preds = %4
  %45 = load ptr, ptr %9, align 8, !tbaa !6
  %46 = getelementptr inbounds nuw i8, ptr %45, i64 24
  %47 = load i64, ptr %46, align 8, !tbaa !44
  %48 = and i64 %47, 2048
  %.not31 = icmp eq i64 %48, 0
  br i1 %.not31, label %55, label %49

49:                                               ; preds = %44
  %50 = getelementptr inbounds nuw i8, ptr %0, i64 192
  store ptr null, ptr %50, align 8, !tbaa !51
  %51 = getelementptr inbounds nuw i8, ptr %0, i64 184
  store i32 0, ptr %51, align 8, !tbaa !50
  %52 = getelementptr inbounds nuw i8, ptr %0, i64 64
  %53 = load ptr, ptr %52, align 8, !tbaa !24
  %54 = tail call i32 %53(i32 noundef 2, ptr noundef nonnull %0) #14
  %.not32 = icmp eq i32 %54, 0
  br i1 %.not32, label %.loopexit, label %55

55:                                               ; preds = %49, %44
  br label %.loopexit

.loopexit:                                        ; preds = %33, %30, %.preheader, %49, %1, %55, %38, %23
  %.029 = phi i32 [ 0, %23 ], [ %43, %38 ], [ 1, %55 ], [ 1, %1 ], [ 0, %49 ], [ 1, %.preheader ], [ 1, %33 ], [ 0, %30 ]
  ret i32 %.029
}